; Function Attrs: mustprogress nounwind uwtable
define hidden void @_ZN20ElapsedTimeCriterion5startEv(ptr noundef nonnull writeonly align 8 captures(none) dereferenceable(32) initializes((16, 32)) %0) unnamed_addr #5 align 2 {
  %2 = tail call i64 @_ZNSt6chrono3_V212system_clock3nowEv() #37
  %3 = sdiv i64 %2, 1000
  %4 = getelementptr inbounds nuw i8, ptr %0, i64 24
  store i64 %3, ptr %4, align 8, !tbaa !314
  %5 = getelementptr inbounds nuw i8, ptr %0, i64 16
  store i64 %3, ptr %5, align 8, !tbaa !315
  ret void
}